target datalayout = "e-m:e-p270:32:32-p271:32:32-p272:64:64-i64:64-i128:128-f80:128-n8:16:32:64-S128"
target triple = "x86_64-pc-linux-gnu"

%struct.PaUtilThreading = type { i64 }

; Function Attrs: nounwind uwtable
define i32 @PaUtil_CancelThreading(ptr noundef %0, i32 noundef %1, ptr noundef %2) #0 {
  %4 = alloca ptr, align 8
  %5 = alloca i32, align 4
  %6 = alloca ptr, align 8
  %7 = alloca i32, align 4
  %8 = alloca ptr, align 8
  store ptr %0, ptr %4, align 8, !tbaa !7
  store i32 %1, ptr %5, align 4, !tbaa !14
  store ptr %2, ptr %6, align 8, !tbaa !16
  call void @llvm.lifetime.start.p0(i64 4, ptr %7) #10
  store i32 0, ptr %7, align 4, !tbaa !14
  call void @llvm.lifetime.start.p0(i64 8, ptr %8) #10
  %9 = load ptr, ptr %6, align 8, !tbaa !16
  %10 = icmp ne ptr %9, null
  br i1 %10, label %11, label %13

11:                                               ; preds = %3
  %12 = load ptr, ptr %6, align 8, !tbaa !16
  store i32 0, ptr %12, align 4, !tbaa !14
  br label %13

13:                                               ; preds = %11, %3
  %14 = load i32, ptr %5, align 4, !tbaa !14
  %15 = icmp ne i32 %14, 0
  br i1 %15, label %21, label %16

16:                                               ; preds = %13
  %17 = load ptr, ptr %4, align 8, !tbaa !7
  %18 = getelementptr inbounds nuw %struct.PaUtilThreading, ptr %17, i32 0, i32 0
  %19 = load i64, ptr %18, align 8, !tbaa !18
  %20 = call i32 @pthread_cancel(i64 noundef %19)
  br label %21

21:                                               ; preds = %16, %13
  %22 = load ptr, ptr %4, align 8, !tbaa !7
  %23 = getelementptr inbounds nuw %struct.PaUtilThreading, ptr %22, i32 0, i32 0
  %24 = load i64, ptr %23, align 8, !tbaa !18
  %25 = call i32 @pthread_join(i64 noundef %24, ptr noundef %8)
  %26 = load ptr, ptr %8, align 8, !tbaa !7
  %27 = icmp ne ptr %26, null
  br i1 %27, label %28, label %40

28:                                               ; preds = %21
  %29 = load ptr, ptr %8, align 8, !tbaa !7
  %30 = icmp ne ptr inttoptr (i64 -1 to ptr), %29
  br i1 %30, label %31, label %40

31:                                               ; preds = %28
  %32 = load ptr, ptr %6, align 8, !tbaa !16
  %33 = icmp ne ptr %32, null
  br i1 %33, label %34, label %38

34:                                               ; preds = %31
  %35 = load ptr, ptr %8, align 8, !tbaa !7
  %36 = load i32, ptr %35, align 4, !tbaa !14
  %37 = load ptr, ptr %6, align 8, !tbaa !16
  store i32 %36, ptr %37, align 4, !tbaa !14
  br label %38

38:                                               ; preds = %34, %31
  %39 = load ptr, ptr %8, align 8, !tbaa !7
  call void @free(ptr noundef %39) #10
  br label %40

40:                                               ; preds = %38, %28, %21
  %41 = load i32, ptr %7, align 4, !tbaa !14
  call void @llvm.lifetime.end.p0(i64 8, ptr %8) #10
  call void @llvm.lifetime.end.p0(i64 4, ptr %7) #10
  ret i32 %41
}