; Function Attrs: nounwind uwtable
define noundef i32 @PaUtil_CancelThreading(ptr noundef readonly captures(none) %0, i32 noundef %1, ptr noundef writeonly captures(address_is_null) %2) local_unnamed_addr #6 {
  %4 = alloca ptr, align 8
  call void @llvm.lifetime.start.p0(i64 8, ptr nonnull %4) #16
  %.not = icmp eq ptr %2, null
  br i1 %.not, label %6, label %5

5:                                                ; preds = %3
  store i32 0, ptr %2, align 4, !tbaa !11
  br label %6

6:                                                ; preds = %5, %3
  %.not9 = icmp eq i32 %1, 0
  br i1 %.not9, label %7, label %10

7:                                                ; preds = %6
  %8 = load i64, ptr %0, align 8, !tbaa !13
  %9 = tail call i32 @pthread_cancel(i64 noundef %8) #16
  br label %10

10:                                               ; preds = %7, %6
  %11 = load i64, ptr %0, align 8, !tbaa !13
  %12 = call i32 @pthread_join(i64 noundef %11, ptr noundef nonnull %4) #16
  %13 = load ptr, ptr %4, align 8, !tbaa !15
  %magicptr = ptrtoint ptr %13 to i64
  switch i64 %magicptr, label %14 [
    i64 -1, label %18
    i64 0, label %18
  ]

14:                                               ; preds = %10
  br i1 %.not, label %17, label %15

15:                                               ; preds = %14
  %16 = load i32, ptr %13, align 4, !tbaa !11
  store i32 %16, ptr %2, align 4, !tbaa !11
  br label %17

17:                                               ; preds = %15, %14
  call void @free(ptr noundef %13) #16
  br label %18

18:                                               ; preds = %10, %10, %17
  call void @llvm.lifetime.end.p0(i64 8, ptr nonnull %4) #16
  ret i32 0
}